target datalayout = "e-m:e-p270:32:32-p271:32:32-p272:64:64-i64:64-i128:128-f80:128-n8:16:32:64-S128"
target triple = "x86_64-pc-linux-gnu"

%"class.icu_77::TimeUnitFormat" = type <{ %"class.icu_77::MeasureFormat", [7 x ptr], i32, [4 x i8] }>
%"class.icu_77::MeasureFormat" = type { %"class.icu_77::Format", ptr, ptr, ptr, i32, ptr }
%"class.icu_77::Format" = type { %"class.icu_77::UObject", ptr, ptr }
%"class.icu_77::UObject" = type { ptr }
%"class.icu_77::UVector" = type { %"class.icu_77::UObject", i32, i32, ptr, ptr, ptr }
%"class.icu_77::LocalPointer.2" = type { %"class.icu_77::LocalPointerBase.3" }
%"class.icu_77::LocalPointerBase.3" = type { ptr }

@_ZN6icu_77L9gUnitsTagE = internal constant [6 x i8] c"units\00", align 1
@_ZN6icu_77L14gShortUnitsTagE = internal constant [11 x i8] c"unitsShort\00", align 1

; Function Attrs: mustprogress nounwind uwtable
define linkonce_odr void @_ZN6icu_7716LocalPointerBaseINS_17StringEnumerationEED2Ev(ptr noundef nonnull align 8 dereferenceable(8) %0) unnamed_addr #0 comdat align 2 {
  %2 = alloca ptr, align 8
  store ptr %0, ptr %2, align 8, !tbaa !101
  ret void
}

; Function Attrs: inlinehint mustprogress nounwind uwtable
define internal noundef signext i8 @_ZL9U_SUCCESS10UErrorCode(i32 noundef %0) #2 {
  %2 = alloca i32, align 4
  store i32 %0, ptr %2, align 4, !tbaa !15
  %3 = load i32, ptr %2, align 4, !tbaa !15
  %4 = icmp sle i32 %3, 0
  %5 = zext i1 %4 to i8
  ret i8 %5
}

; Function Attrs: mustprogress nounwind uwtable
define linkonce_odr void @_ZN6icu_7716LocalPointerBaseINS_17StringEnumerationEEC2EPS1_(ptr noundef nonnull align 8 dereferenceable(8) %0, ptr noundef %1) unnamed_addr #0 comdat align 2 {
  %3 = alloca ptr, align 8
  %4 = alloca ptr, align 8
  store ptr %0, ptr %3, align 8, !tbaa !101
  store ptr %1, ptr %4, align 8, !tbaa !99
  %5 = load ptr, ptr %3, align 8
  %6 = getelementptr inbounds nuw %"class.icu_77::LocalPointerBase.3", ptr %5, i32 0, i32 0
  %7 = load ptr, ptr %4, align 8, !tbaa !99
  store ptr %7, ptr %6, align 8, !tbaa !103
  ret void
}

; Function Attrs: mustprogress nounwind uwtable
define linkonce_odr void @_ZN6icu_7712LocalPointerINS_17StringEnumerationEED2Ev(ptr noundef nonnull align 8 dereferenceable(8) %0) unnamed_addr #0 comdat align 2 {
  %2 = alloca ptr, align 8
  store ptr %0, ptr %2, align 8, !tbaa !97
  %3 = load ptr, ptr %2, align 8
  %4 = getelementptr inbounds nuw %"class.icu_77::LocalPointerBase.3", ptr %3, i32 0, i32 0
  %5 = load ptr, ptr %4, align 8, !tbaa !103
  %6 = icmp eq ptr %5, null
  br i1 %6, label %11, label %7

7:                                                ; preds = %1
  %8 = load ptr, ptr %5, align 8, !tbaa !25
  %9 = getelementptr inbounds ptr, ptr %8, i64 1
  %10 = load ptr, ptr %9, align 8
  call void %10(ptr noundef nonnull align 8 dereferenceable(116) %5) #11
  br label %11

11:                                               ; preds = %7, %1
  call void @_ZN6icu_7716LocalPointerBaseINS_17StringEnumerationEED2Ev(ptr noundef nonnull align 8 dereferenceable(8) %3) #11
  ret void
}

; Function Attrs: mustprogress nounwind uwtable
define linkonce_odr noundef ptr @_ZNK6icu_7716LocalPointerBaseINS_17StringEnumerationEEptEv(ptr noundef nonnull align 8 dereferenceable(8) %0) #0 comdat align 2 {
  %2 = alloca ptr, align 8
  store ptr %0, ptr %2, align 8, !tbaa !101
  %3 = load ptr, ptr %2, align 8
  %4 = getelementptr inbounds nuw %"class.icu_77::LocalPointerBase.3", ptr %3, i32 0, i32 0
  %5 = load ptr, ptr %4, align 8, !tbaa !103
  ret ptr %5
}

; Function Attrs: inlinehint mustprogress nounwind uwtable
define internal noundef signext i8 @_ZL9U_FAILURE10UErrorCode(i32 noundef %0) #2 {
  %2 = alloca i32, align 4
  store i32 %0, ptr %2, align 4, !tbaa !15
  %3 = load i32, ptr %2, align 4, !tbaa !15
  %4 = icmp sgt i32 %3, 0
  %5 = zext i1 %4 to i8
  ret i8 %5
}

; Function Attrs: mustprogress uwtable
define linkonce_odr void @_ZN6icu_7712LocalPointerINS_17StringEnumerationEEC2EPS1_R10UErrorCode(ptr noundef nonnull align 8 dereferenceable(8) %0, ptr noundef %1, ptr noundef nonnull align 4 dereferenceable(4) %2) unnamed_addr #1 comdat align 2 {
  %4 = alloca ptr, align 8
  %5 = alloca ptr, align 8
  %6 = alloca ptr, align 8
  store ptr %0, ptr %4, align 8, !tbaa !97
  store ptr %1, ptr %5, align 8, !tbaa !99
  store ptr %2, ptr %6, align 8, !tbaa !22
  %7 = load ptr, ptr %4, align 8
  %8 = load ptr, ptr %5, align 8, !tbaa !99
  call void @_ZN6icu_7716LocalPointerBaseINS_17StringEnumerationEEC2EPS1_(ptr noundef nonnull align 8 dereferenceable(8) %7, ptr noundef %8)
  %9 = load ptr, ptr %5, align 8, !tbaa !99
  %10 = icmp eq ptr %9, null
  br i1 %10, label %11, label %18

11:                                               ; preds = %3
  %12 = load ptr, ptr %6, align 8, !tbaa !22
  %13 = load i32, ptr %12, align 4, !tbaa !15
  %14 = call noundef signext i8 @_ZL9U_SUCCESS10UErrorCode(i32 noundef %13)
  %15 = icmp ne i8 %14, 0
  br i1 %15, label %16, label %18

16:                                               ; preds = %11
  %17 = load ptr, ptr %6, align 8, !tbaa !22
  store i32 7, ptr %17, align 4, !tbaa !15
  br label %18

18:                                               ; preds = %16, %11, %3
  ret void
}

; Function Attrs: mustprogress uwtable
define void @_ZN6icu_7714TimeUnitFormat15initDataMembersER10UErrorCode(ptr noundef nonnull align 8 dereferenceable(124) %0, ptr noundef nonnull align 4 dereferenceable(4) %1) #1 align 2 {
  %3 = alloca ptr, align 8
  %4 = alloca ptr, align 8
  %5 = alloca i32, align 4
  store ptr %0, ptr %3, align 8, !tbaa !23
  store ptr %1, ptr %4, align 8, !tbaa !22
  %6 = load ptr, ptr %3, align 8
  %7 = load ptr, ptr %4, align 8, !tbaa !22
  %8 = load i32, ptr %7, align 4, !tbaa !15
  %9 = call noundef signext i8 @_ZL9U_FAILURE10UErrorCode(i32 noundef %8)
  %10 = icmp ne i8 %9, 0
  br i1 %10, label %11, label %12

11:                                               ; preds = %2
  br label %30

12:                                               ; preds = %2
  call void @llvm.lifetime.start.p0(i64 4, ptr %5) #11
  store i32 0, ptr %5, align 4, !tbaa !29
  br label %13

13:                                               ; preds = %27, %12
  %14 = load i32, ptr %5, align 4, !tbaa !29
  %15 = icmp slt i32 %14, 7
  br i1 %15, label %17, label %16

16:                                               ; preds = %13
  call void @llvm.lifetime.end.p0(i64 4, ptr %5) #11
  br label %30

17:                                               ; preds = %13
  %18 = getelementptr inbounds nuw %"class.icu_77::TimeUnitFormat", ptr %6, i32 0, i32 1
  %19 = load i32, ptr %5, align 4, !tbaa !29
  %20 = zext i32 %19 to i64
  %21 = getelementptr inbounds nuw [7 x ptr], ptr %18, i64 0, i64 %20
  %22 = load ptr, ptr %21, align 8, !tbaa !31
  call void @_ZN6icu_7714TimeUnitFormat10deleteHashEPNS_9HashtableE(ptr noundef nonnull align 8 dereferenceable(124) %6, ptr noundef %22)
  %23 = getelementptr inbounds nuw %"class.icu_77::TimeUnitFormat", ptr %6, i32 0, i32 1
  %24 = load i32, ptr %5, align 4, !tbaa !29
  %25 = zext i32 %24 to i64
  %26 = getelementptr inbounds nuw [7 x ptr], ptr %23, i64 0, i64 %25
  store ptr null, ptr %26, align 8, !tbaa !31
  br label %27

27:                                               ; preds = %17
  %28 = load i32, ptr %5, align 4, !tbaa !29
  %29 = add nsw i32 %28, 1
  store i32 %29, ptr %5, align 4, !tbaa !29
  br label %13, !llvm.loop !96

30:                                               ; preds = %11, %16
  ret void
}

; Function Attrs: mustprogress uwtable
define void @_ZN6icu_7714TimeUnitFormat5setupER10UErrorCode(ptr noundef nonnull align 8 dereferenceable(124) %0, ptr noundef nonnull align 4 dereferenceable(4) %1) #1 align 2 personality ptr @__gxx_personality_v0 {
  %3 = alloca ptr, align 8
  %4 = alloca ptr, align 8
  %5 = alloca %"class.icu_77::UVector", align 8
  %6 = alloca %"class.icu_77::LocalPointer.2", align 8
  %7 = alloca ptr, align 8
  %8 = alloca i32, align 4
  %9 = alloca i32, align 4
  %10 = alloca ptr, align 8
  store ptr %0, ptr %3, align 8, !tbaa !23
  store ptr %1, ptr %4, align 8, !tbaa !22
  %11 = load ptr, ptr %3, align 8
  %12 = load ptr, ptr %4, align 8, !tbaa !22
  call void @_ZN6icu_7714TimeUnitFormat15initDataMembersER10UErrorCode(ptr noundef nonnull align 8 dereferenceable(124) %11, ptr noundef nonnull align 4 dereferenceable(4) %12)
  call void @llvm.lifetime.start.p0(i64 40, ptr %5) #11
  %13 = load ptr, ptr %4, align 8, !tbaa !22
  call void @_ZN6icu_777UVectorC1EPFvPvEPFa8UElementS4_EiR10UErrorCode(ptr noundef nonnull align 8 dereferenceable(40) %5, ptr noundef null, ptr noundef @uhash_compareUnicodeString_77, i32 noundef 6, ptr noundef nonnull align 4 dereferenceable(4) %13)
  call void @llvm.lifetime.start.p0(i64 8, ptr %6) #11
  %14 = invoke noundef nonnull align 8 dereferenceable(28) ptr @_ZNK6icu_7713MeasureFormat14getPluralRulesEv(ptr noundef nonnull align 8 dereferenceable(64) %11)
          to label %15 unwind label %27

15:                                               ; preds = %2
  %16 = load ptr, ptr %4, align 8, !tbaa !22
  %17 = invoke noundef ptr @_ZNK6icu_7711PluralRules11getKeywordsER10UErrorCode(ptr noundef nonnull align 8 dereferenceable(28) %14, ptr noundef nonnull align 4 dereferenceable(4) %16)
          to label %18 unwind label %27

18:                                               ; preds = %15
  %19 = load ptr, ptr %4, align 8, !tbaa !22
  invoke void @_ZN6icu_7712LocalPointerINS_17StringEnumerationEEC2EPS1_R10UErrorCode(ptr noundef nonnull align 8 dereferenceable(8) %6, ptr noundef %17, ptr noundef nonnull align 4 dereferenceable(4) %19)
          to label %20 unwind label %27

20:                                               ; preds = %18
  %21 = load ptr, ptr %4, align 8, !tbaa !22
  %22 = load i32, ptr %21, align 4, !tbaa !15
  %23 = invoke noundef signext i8 @_ZL9U_FAILURE10UErrorCode(i32 noundef %22)
          to label %24 unwind label %31

24:                                               ; preds = %20
  %25 = icmp ne i8 %23, 0
  br i1 %25, label %26, label %35

26:                                               ; preds = %24
  store i32 1, ptr %9, align 4
  br label %63

27:                                               ; preds = %18, %15, %2
  %28 = landingpad { ptr, i32 }
          cleanup
  %29 = extractvalue { ptr, i32 } %28, 0
  store ptr %29, ptr %7, align 8
  %30 = extractvalue { ptr, i32 } %28, 1
  store i32 %30, ptr %8, align 4
  br label %67

31:                                               ; preds = %20
  %32 = landingpad { ptr, i32 }
          cleanup
  %33 = extractvalue { ptr, i32 } %32, 0
  store ptr %33, ptr %7, align 8
  %34 = extractvalue { ptr, i32 } %32, 1
  store i32 %34, ptr %8, align 4
  br label %66

35:                                               ; preds = %24
  call void @llvm.lifetime.start.p0(i64 8, ptr %10) #11
  br label %36

36:                                               ; preds = %49, %35
  %37 = invoke noundef ptr @_ZNK6icu_7716LocalPointerBaseINS_17StringEnumerationEEptEv(ptr noundef nonnull align 8 dereferenceable(8) %6)
          to label %38 unwind label %50

38:                                               ; preds = %36
  %39 = load ptr, ptr %4, align 8, !tbaa !22
  %40 = load ptr, ptr %37, align 8, !tbaa !25
  %41 = getelementptr inbounds ptr, ptr %40, i64 7
  %42 = load ptr, ptr %41, align 8
  %43 = invoke noundef ptr %42(ptr noundef nonnull align 8 dereferenceable(116) %37, ptr noundef nonnull align 4 dereferenceable(4) %39)
          to label %44 unwind label %50

44:                                               ; preds = %38
  store ptr %43, ptr %10, align 8, !tbaa !53
  %45 = icmp ne ptr %43, null
  br i1 %45, label %46, label %54

46:                                               ; preds = %44
  %47 = load ptr, ptr %10, align 8, !tbaa !53
  %48 = load ptr, ptr %4, align 8, !tbaa !22
  invoke void @_ZN6icu_777UVector10addElementEPvR10UErrorCode(ptr noundef nonnull align 8 dereferenceable(40) %5, ptr noundef %47, ptr noundef nonnull align 4 dereferenceable(4) %48)
          to label %49 unwind label %50

49:                                               ; preds = %46
  br label %36, !llvm.loop !95

50:                                               ; preds = %60, %58, %56, %54, %46, %38, %36
  %51 = landingpad { ptr, i32 }
          cleanup
  %52 = extractvalue { ptr, i32 } %51, 0
  store ptr %52, ptr %7, align 8
  %53 = extractvalue { ptr, i32 } %51, 1
  store i32 %53, ptr %8, align 4
  call void @llvm.lifetime.end.p0(i64 8, ptr %10) #11
  br label %66

54:                                               ; preds = %44
  %55 = load ptr, ptr %4, align 8, !tbaa !22
  invoke void @_ZN6icu_7714TimeUnitFormat21readFromCurrentLocaleE20UTimeUnitFormatStylePKcRKNS_7UVectorER10UErrorCode(ptr noundef nonnull align 8 dereferenceable(124) %11, i32 noundef 0, ptr noundef @_ZN6icu_77L9gUnitsTagE, ptr noundef nonnull align 8 dereferenceable(40) %5, ptr noundef nonnull align 4 dereferenceable(4) %55)
          to label %56 unwind label %50

56:                                               ; preds = %54
  %57 = load ptr, ptr %4, align 8, !tbaa !22
  invoke void @_ZN6icu_7714TimeUnitFormat16checkConsistencyE20UTimeUnitFormatStylePKcR10UErrorCode(ptr noundef nonnull align 8 dereferenceable(124) %11, i32 noundef 0, ptr noundef @_ZN6icu_77L9gUnitsTagE, ptr noundef nonnull align 4 dereferenceable(4) %57)
          to label %58 unwind label %50

58:                                               ; preds = %56
  %59 = load ptr, ptr %4, align 8, !tbaa !22
  invoke void @_ZN6icu_7714TimeUnitFormat21readFromCurrentLocaleE20UTimeUnitFormatStylePKcRKNS_7UVectorER10UErrorCode(ptr noundef nonnull align 8 dereferenceable(124) %11, i32 noundef 1, ptr noundef @_ZN6icu_77L14gShortUnitsTagE, ptr noundef nonnull align 8 dereferenceable(40) %5, ptr noundef nonnull align 4 dereferenceable(4) %59)
          to label %60 unwind label %50

60:                                               ; preds = %58
  %61 = load ptr, ptr %4, align 8, !tbaa !22
  invoke void @_ZN6icu_7714TimeUnitFormat16checkConsistencyE20UTimeUnitFormatStylePKcR10UErrorCode(ptr noundef nonnull align 8 dereferenceable(124) %11, i32 noundef 1, ptr noundef @_ZN6icu_77L14gShortUnitsTagE, ptr noundef nonnull align 4 dereferenceable(4) %61)
          to label %62 unwind label %50

62:                                               ; preds = %60
  call void @llvm.lifetime.end.p0(i64 8, ptr %10) #11
  store i32 0, ptr %9, align 4
  br label %63

63:                                               ; preds = %62, %26
  call void @_ZN6icu_7712LocalPointerINS_17StringEnumerationEED2Ev(ptr noundef nonnull align 8 dereferenceable(8) %6) #11
  call void @llvm.lifetime.end.p0(i64 8, ptr %6) #11
  call void @_ZN6icu_777UVectorD1Ev(ptr noundef nonnull align 8 dereferenceable(40) %5) #11
  call void @llvm.lifetime.end.p0(i64 40, ptr %5) #11
  %64 = load i32, ptr %9, align 4
  switch i32 %64, label %73 [
    i32 0, label %65
    i32 1, label %65
  ]

65:                                               ; preds = %63, %63
  ret void

66:                                               ; preds = %50, %31
  call void @_ZN6icu_7712LocalPointerINS_17StringEnumerationEED2Ev(ptr noundef nonnull align 8 dereferenceable(8) %6) #11
  br label %67

67:                                               ; preds = %66, %27
  call void @llvm.lifetime.end.p0(i64 8, ptr %6) #11
  call void @_ZN6icu_777UVectorD1Ev(ptr noundef nonnull align 8 dereferenceable(40) %5) #11
  call void @llvm.lifetime.end.p0(i64 40, ptr %5) #11
  br label %68

68:                                               ; preds = %67
  %69 = load ptr, ptr %7, align 8
  %70 = load i32, ptr %8, align 4
  %71 = insertvalue { ptr, i32 } poison, ptr %69, 0
  %72 = insertvalue { ptr, i32 } %71, i32 %70, 1
  resume { ptr, i32 } %72

73:                                               ; preds = %63
  unreachable
}