; Function Attrs: mustprogress uwtable
define void @_ZN6icu_7714TimeUnitFormat5setupER10UErrorCode(ptr noundef nonnull align 8 dereferenceable(124) %0, ptr noundef nonnull align 4 dereferenceable(4) %1) local_unnamed_addr #1 align 2 personality ptr @__gxx_personality_v0 {
  %3 = alloca %"class.icu_77::UVector", align 8
  %4 = load i32, ptr %1, align 4, !tbaa !13
  %5 = icmp slt i32 %4, 1
  br i1 %5, label %.preheader.i, label %_ZN6icu_7714TimeUnitFormat15initDataMembersER10UErrorCode.exit

.preheader.i:                                     ; preds = %2
  %6 = getelementptr inbounds nuw i8, ptr %0, i64 64
  br label %7

7:                                                ; preds = %7, %.preheader.i
  %indvars.iv.i = phi i64 [ 0, %.preheader.i ], [ %indvars.iv.next.i, %7 ]
  %8 = getelementptr inbounds nuw [7 x ptr], ptr %6, i64 0, i64 %indvars.iv.i
  %9 = load ptr, ptr %8, align 8, !tbaa !17
  tail call void @_ZN6icu_7714TimeUnitFormat10deleteHashEPNS_9HashtableE(ptr nonnull align 8 poison, ptr noundef %9)
  store ptr null, ptr %8, align 8, !tbaa !17
  %indvars.iv.next.i = add nuw nsw i64 %indvars.iv.i, 1
  %exitcond.not.i = icmp eq i64 %indvars.iv.next.i, 7
  br i1 %exitcond.not.i, label %_ZN6icu_7714TimeUnitFormat15initDataMembersER10UErrorCode.exit, label %7, !llvm.loop !54

_ZN6icu_7714TimeUnitFormat15initDataMembersER10UErrorCode.exit: ; preds = %7, %2
  call void @llvm.lifetime.start.p0(i64 40, ptr nonnull %3) #16
  call void @_ZN6icu_777UVectorC1EPFvPvEPFa8UElementS4_EiR10UErrorCode(ptr noundef nonnull align 8 dereferenceable(40) %3, ptr noundef null, ptr noundef nonnull @uhash_compareUnicodeString_77, i32 noundef 6, ptr noundef nonnull align 4 dereferenceable(4) %1)
  %10 = invoke noundef nonnull align 8 dereferenceable(28) ptr @_ZNK6icu_7713MeasureFormat14getPluralRulesEv(ptr noundef nonnull align 8 dereferenceable(64) %0)
          to label %11 unwind label %18

11:                                               ; preds = %_ZN6icu_7714TimeUnitFormat15initDataMembersER10UErrorCode.exit
  %12 = invoke noundef ptr @_ZNK6icu_7711PluralRules11getKeywordsER10UErrorCode(ptr noundef nonnull align 8 dereferenceable(28) %10, ptr noundef nonnull align 4 dereferenceable(4) %1)
          to label %13 unwind label %18

13:                                               ; preds = %11
  %14 = icmp ne ptr %12, null
  %15 = load i32, ptr %1, align 4
  %16 = icmp sgt i32 %15, 0
  %or.cond.i = select i1 %14, i1 true, i1 %16
  br i1 %or.cond.i, label %_ZN6icu_7712LocalPointerINS_17StringEnumerationEEC2EPS1_R10UErrorCode.exit, label %_ZN6icu_7712LocalPointerINS_17StringEnumerationEEC2EPS1_R10UErrorCode.exit.thread

_ZN6icu_7712LocalPointerINS_17StringEnumerationEEC2EPS1_R10UErrorCode.exit: ; preds = %13
  %17 = icmp slt i32 %15, 1
  br i1 %17, label %.preheader, label %33

_ZN6icu_7712LocalPointerINS_17StringEnumerationEEC2EPS1_R10UErrorCode.exit.thread: ; preds = %13
  store i32 7, ptr %1, align 4, !tbaa !13
  br label %_ZN6icu_7712LocalPointerINS_17StringEnumerationEED2Ev.exit18

18:                                               ; preds = %11, %_ZN6icu_7714TimeUnitFormat15initDataMembersER10UErrorCode.exit
  %19 = landingpad { ptr, i32 }
          cleanup
  br label %38

.preheader:                                       ; preds = %_ZN6icu_7712LocalPointerINS_17StringEnumerationEEC2EPS1_R10UErrorCode.exit, %25
  %20 = load ptr, ptr %12, align 8, !tbaa !15
  %21 = getelementptr inbounds nuw i8, ptr %20, i64 56
  %22 = load ptr, ptr %21, align 8
  %23 = invoke noundef ptr %22(ptr noundef nonnull align 8 dereferenceable(116) %12, ptr noundef nonnull align 4 dereferenceable(4) %1)
          to label %24 unwind label %_ZN6icu_7712LocalPointerINS_17StringEnumerationEED2Ev.exit.loopexit

24:                                               ; preds = %.preheader
  %.not16 = icmp eq ptr %23, null
  br i1 %.not16, label %29, label %25

25:                                               ; preds = %24
  invoke void @_ZN6icu_777UVector10addElementEPvR10UErrorCode(ptr noundef nonnull align 8 dereferenceable(40) %3, ptr noundef nonnull %23, ptr noundef nonnull align 4 dereferenceable(4) %1)
          to label %.preheader unwind label %_ZN6icu_7712LocalPointerINS_17StringEnumerationEED2Ev.exit.loopexit, !llvm.loop !55

_ZN6icu_7712LocalPointerINS_17StringEnumerationEED2Ev.exit.loopexit: ; preds = %.preheader, %25
  %lpad.loopexit = landingpad { ptr, i32 }
          cleanup
  br label %_ZN6icu_7712LocalPointerINS_17StringEnumerationEED2Ev.exit

_ZN6icu_7712LocalPointerINS_17StringEnumerationEED2Ev.exit.loopexit.split-lp: ; preds = %29, %30, %31, %32
  %lpad.loopexit.split-lp = landingpad { ptr, i32 }
          cleanup
  br label %_ZN6icu_7712LocalPointerINS_17StringEnumerationEED2Ev.exit

_ZN6icu_7712LocalPointerINS_17StringEnumerationEED2Ev.exit: ; preds = %_ZN6icu_7712LocalPointerINS_17StringEnumerationEED2Ev.exit.loopexit.split-lp, %_ZN6icu_7712LocalPointerINS_17StringEnumerationEED2Ev.exit.loopexit
  %lpad.phi = phi { ptr, i32 } [ %lpad.loopexit, %_ZN6icu_7712LocalPointerINS_17StringEnumerationEED2Ev.exit.loopexit ], [ %lpad.loopexit.split-lp, %_ZN6icu_7712LocalPointerINS_17StringEnumerationEED2Ev.exit.loopexit.split-lp ]
  %26 = load ptr, ptr %12, align 8, !tbaa !15
  %27 = getelementptr inbounds nuw i8, ptr %26, i64 8
  %28 = load ptr, ptr %27, align 8
  call void %28(ptr noundef nonnull align 8 dereferenceable(116) %12) #16
  br label %38

29:                                               ; preds = %24
  invoke void @_ZN6icu_7714TimeUnitFormat21readFromCurrentLocaleE20UTimeUnitFormatStylePKcRKNS_7UVectorER10UErrorCode(ptr noundef nonnull align 8 dereferenceable(124) %0, i32 noundef 0, ptr noundef nonnull @_ZN6icu_77L9gUnitsTagE, ptr noundef nonnull align 8 dereferenceable(40) %3, ptr noundef nonnull align 4 dereferenceable(4) %1)
          to label %30 unwind label %_ZN6icu_7712LocalPointerINS_17StringEnumerationEED2Ev.exit.loopexit.split-lp

30:                                               ; preds = %29
  invoke void @_ZN6icu_7714TimeUnitFormat16checkConsistencyE20UTimeUnitFormatStylePKcR10UErrorCode(ptr noundef nonnull align 8 dereferenceable(124) %0, i32 noundef 0, ptr noundef nonnull @_ZN6icu_77L9gUnitsTagE, ptr noundef nonnull align 4 dereferenceable(4) %1)
          to label %31 unwind label %_ZN6icu_7712LocalPointerINS_17StringEnumerationEED2Ev.exit.loopexit.split-lp

31:                                               ; preds = %30
  invoke void @_ZN6icu_7714TimeUnitFormat21readFromCurrentLocaleE20UTimeUnitFormatStylePKcRKNS_7UVectorER10UErrorCode(ptr noundef nonnull align 8 dereferenceable(124) %0, i32 noundef 1, ptr noundef nonnull @_ZN6icu_77L14gShortUnitsTagE, ptr noundef nonnull align 8 dereferenceable(40) %3, ptr noundef nonnull align 4 dereferenceable(4) %1)
          to label %32 unwind label %_ZN6icu_7712LocalPointerINS_17StringEnumerationEED2Ev.exit.loopexit.split-lp

32:                                               ; preds = %31
  invoke void @_ZN6icu_7714TimeUnitFormat16checkConsistencyE20UTimeUnitFormatStylePKcR10UErrorCode(ptr noundef nonnull align 8 dereferenceable(124) %0, i32 noundef 1, ptr noundef nonnull @_ZN6icu_77L14gShortUnitsTagE, ptr noundef nonnull align 4 dereferenceable(4) %1)
          to label %.thread unwind label %_ZN6icu_7712LocalPointerINS_17StringEnumerationEED2Ev.exit.loopexit.split-lp

33:                                               ; preds = %_ZN6icu_7712LocalPointerINS_17StringEnumerationEEC2EPS1_R10UErrorCode.exit
  %34 = icmp eq ptr %12, null
  br i1 %34, label %_ZN6icu_7712LocalPointerINS_17StringEnumerationEED2Ev.exit18, label %.thread

.thread:                                          ; preds = %32, %33
  %35 = load ptr, ptr %12, align 8, !tbaa !15
  %36 = getelementptr inbounds nuw i8, ptr %35, i64 8
  %37 = load ptr, ptr %36, align 8
  call void %37(ptr noundef nonnull align 8 dereferenceable(116) %12) #16
  br label %_ZN6icu_7712LocalPointerINS_17StringEnumerationEED2Ev.exit18

_ZN6icu_7712LocalPointerINS_17StringEnumerationEED2Ev.exit18: ; preds = %_ZN6icu_7712LocalPointerINS_17StringEnumerationEEC2EPS1_R10UErrorCode.exit.thread, %33, %.thread
  call void @_ZN6icu_777UVectorD1Ev(ptr noundef nonnull align 8 dereferenceable(40) %3) #16
  call void @llvm.lifetime.end.p0(i64 40, ptr nonnull %3) #16
  ret void

38:                                               ; preds = %_ZN6icu_7712LocalPointerINS_17StringEnumerationEED2Ev.exit, %18
  %.pn = phi { ptr, i32 } [ %lpad.phi, %_ZN6icu_7712LocalPointerINS_17StringEnumerationEED2Ev.exit ], [ %19, %18 ]
  call void @_ZN6icu_777UVectorD1Ev(ptr noundef nonnull align 8 dereferenceable(40) %3) #16
  call void @llvm.lifetime.end.p0(i64 40, ptr nonnull %3) #16
  resume { ptr, i32 } %.pn
}